target datalayout = "e-m:e-p270:32:32-p271:32:32-p272:64:64-i64:64-i128:128-f80:128-n8:16:32:64-S128"
target triple = "x86_64-pc-linux-gnu"

%struct.jv = type { i8, i8, i16, i32, %union.anon }
%union.anon = type { ptr }
%struct.sort_entry = type { %struct.jv, %struct.jv, i32 }

; Function Attrs: nounwind uwtable
define dso_local { i64, ptr } @jv_group(i64 %0, ptr %1, i64 %2, ptr %3) #0 {
  %5 = alloca %struct.jv, align 8
  %6 = alloca %struct.jv, align 8
  %7 = alloca %struct.jv, align 8
  %8 = alloca i32, align 4
  %9 = alloca %struct.jv, align 8
  %10 = alloca ptr, align 8
  %11 = alloca %struct.jv, align 8
  %12 = alloca %struct.jv, align 8
  %13 = alloca %struct.jv, align 8
  %14 = alloca i32, align 4
  %15 = alloca %struct.jv, align 8
  %16 = alloca %struct.jv, align 8
  %17 = alloca %struct.jv, align 8
  %18 = alloca %struct.jv, align 8
  %19 = alloca %struct.jv, align 8
  %20 = alloca %struct.jv, align 8
  %21 = getelementptr inbounds nuw { i64, ptr }, ptr %6, i32 0, i32 0
  store i64 %0, ptr %21, align 8
  %22 = getelementptr inbounds nuw { i64, ptr }, ptr %6, i32 0, i32 1
  store ptr %1, ptr %22, align 8
  %23 = getelementptr inbounds nuw { i64, ptr }, ptr %7, i32 0, i32 0
  store i64 %2, ptr %23, align 8
  %24 = getelementptr inbounds nuw { i64, ptr }, ptr %7, i32 0, i32 1
  store ptr %3, ptr %24, align 8
  call void @llvm.lifetime.start.p0(i64 4, ptr %8) #6
  %25 = getelementptr inbounds nuw { i64, ptr }, ptr %6, i32 0, i32 0
  %26 = load i64, ptr %25, align 8
  %27 = getelementptr inbounds nuw { i64, ptr }, ptr %6, i32 0, i32 1
  %28 = load ptr, ptr %27, align 8
  %29 = call { i64, ptr } @jv_copy(i64 %26, ptr %28)
  %30 = getelementptr inbounds nuw { i64, ptr }, ptr %9, i32 0, i32 0
  %31 = extractvalue { i64, ptr } %29, 0
  store i64 %31, ptr %30, align 8
  %32 = getelementptr inbounds nuw { i64, ptr }, ptr %9, i32 0, i32 1
  %33 = extractvalue { i64, ptr } %29, 1
  store ptr %33, ptr %32, align 8
  %34 = getelementptr inbounds nuw { i64, ptr }, ptr %9, i32 0, i32 0
  %35 = load i64, ptr %34, align 8
  %36 = getelementptr inbounds nuw { i64, ptr }, ptr %9, i32 0, i32 1
  %37 = load ptr, ptr %36, align 8
  %38 = call i32 @jv_array_length(i64 %35, ptr %37)
  store i32 %38, ptr %8, align 4, !tbaa !10
  call void @llvm.lifetime.start.p0(i64 8, ptr %10) #6
  %39 = getelementptr inbounds nuw { i64, ptr }, ptr %6, i32 0, i32 0
  %40 = load i64, ptr %39, align 8
  %41 = getelementptr inbounds nuw { i64, ptr }, ptr %6, i32 0, i32 1
  %42 = load ptr, ptr %41, align 8
  %43 = getelementptr inbounds nuw { i64, ptr }, ptr %7, i32 0, i32 0
  %44 = load i64, ptr %43, align 8
  %45 = getelementptr inbounds nuw { i64, ptr }, ptr %7, i32 0, i32 1
  %46 = load ptr, ptr %45, align 8
  %47 = call ptr @sort_items(i64 %40, ptr %42, i64 %44, ptr %46)
  store ptr %47, ptr %10, align 8, !tbaa !23
  %48 = call { i64, ptr } @jv_array()
  %49 = getelementptr inbounds nuw { i64, ptr }, ptr %5, i32 0, i32 0
  %50 = extractvalue { i64, ptr } %48, 0
  store i64 %50, ptr %49, align 8
  %51 = getelementptr inbounds nuw { i64, ptr }, ptr %5, i32 0, i32 1
  %52 = extractvalue { i64, ptr } %48, 1
  store ptr %52, ptr %51, align 8
  %53 = load i32, ptr %8, align 4, !tbaa !10
  %54 = icmp sgt i32 %53, 0
  br i1 %54, label %55, label %197

55:                                               ; preds = %4
  call void @llvm.lifetime.start.p0(i64 16, ptr %11) #6
  %56 = load ptr, ptr %10, align 8, !tbaa !23
  %57 = getelementptr inbounds %struct.sort_entry, ptr %56, i64 0
  %58 = getelementptr inbounds nuw %struct.sort_entry, ptr %57, i32 0, i32 1
  call void @llvm.memcpy.p0.p0.i64(ptr align 8 %11, ptr align 8 %58, i64 16, i1 false), !tbaa.struct !4
  call void @llvm.lifetime.start.p0(i64 16, ptr %12) #6
  %59 = call { i64, ptr } @jv_array()
  %60 = getelementptr inbounds nuw { i64, ptr }, ptr %13, i32 0, i32 0
  %61 = extractvalue { i64, ptr } %59, 0
  store i64 %61, ptr %60, align 8
  %62 = getelementptr inbounds nuw { i64, ptr }, ptr %13, i32 0, i32 1
  %63 = extractvalue { i64, ptr } %59, 1
  store ptr %63, ptr %62, align 8
  %64 = load ptr, ptr %10, align 8, !tbaa !23
  %65 = getelementptr inbounds %struct.sort_entry, ptr %64, i64 0
  %66 = getelementptr inbounds nuw %struct.sort_entry, ptr %65, i32 0, i32 0
  %67 = getelementptr inbounds nuw { i64, ptr }, ptr %13, i32 0, i32 0
  %68 = load i64, ptr %67, align 8
  %69 = getelementptr inbounds nuw { i64, ptr }, ptr %13, i32 0, i32 1
  %70 = load ptr, ptr %69, align 8
  %71 = getelementptr inbounds nuw { i64, ptr }, ptr %66, i32 0, i32 0
  %72 = load i64, ptr %71, align 8
  %73 = getelementptr inbounds nuw { i64, ptr }, ptr %66, i32 0, i32 1
  %74 = load ptr, ptr %73, align 8
  %75 = call { i64, ptr } @jv_array_append(i64 %68, ptr %70, i64 %72, ptr %74)
  %76 = getelementptr inbounds nuw { i64, ptr }, ptr %12, i32 0, i32 0
  %77 = extractvalue { i64, ptr } %75, 0
  store i64 %77, ptr %76, align 8
  %78 = getelementptr inbounds nuw { i64, ptr }, ptr %12, i32 0, i32 1
  %79 = extractvalue { i64, ptr } %75, 1
  store ptr %79, ptr %78, align 8
  call void @llvm.lifetime.start.p0(i64 4, ptr %14) #6
  store i32 1, ptr %14, align 4, !tbaa !10
  br label %80

80:                                               ; preds = %176, %55
  %81 = load i32, ptr %14, align 4, !tbaa !10
  %82 = load i32, ptr %8, align 4, !tbaa !10
  %83 = icmp slt i32 %81, %82
  br i1 %83, label %85, label %84

84:                                               ; preds = %80
  call void @llvm.lifetime.end.p0(i64 4, ptr %14) #6
  br label %179

85:                                               ; preds = %80
  %86 = getelementptr inbounds nuw { i64, ptr }, ptr %11, i32 0, i32 0
  %87 = load i64, ptr %86, align 8
  %88 = getelementptr inbounds nuw { i64, ptr }, ptr %11, i32 0, i32 1
  %89 = load ptr, ptr %88, align 8
  %90 = call { i64, ptr } @jv_copy(i64 %87, ptr %89)
  %91 = getelementptr inbounds nuw { i64, ptr }, ptr %15, i32 0, i32 0
  %92 = extractvalue { i64, ptr } %90, 0
  store i64 %92, ptr %91, align 8
  %93 = getelementptr inbounds nuw { i64, ptr }, ptr %15, i32 0, i32 1
  %94 = extractvalue { i64, ptr } %90, 1
  store ptr %94, ptr %93, align 8
  %95 = load ptr, ptr %10, align 8, !tbaa !23
  %96 = load i32, ptr %14, align 4, !tbaa !10
  %97 = sext i32 %96 to i64
  %98 = getelementptr inbounds %struct.sort_entry, ptr %95, i64 %97
  %99 = getelementptr inbounds nuw %struct.sort_entry, ptr %98, i32 0, i32 1
  %100 = getelementptr inbounds nuw { i64, ptr }, ptr %99, i32 0, i32 0
  %101 = load i64, ptr %100, align 8
  %102 = getelementptr inbounds nuw { i64, ptr }, ptr %99, i32 0, i32 1
  %103 = load ptr, ptr %102, align 8
  %104 = call { i64, ptr } @jv_copy(i64 %101, ptr %103)
  %105 = getelementptr inbounds nuw { i64, ptr }, ptr %16, i32 0, i32 0
  %106 = extractvalue { i64, ptr } %104, 0
  store i64 %106, ptr %105, align 8
  %107 = getelementptr inbounds nuw { i64, ptr }, ptr %16, i32 0, i32 1
  %108 = extractvalue { i64, ptr } %104, 1
  store ptr %108, ptr %107, align 8
  %109 = getelementptr inbounds nuw { i64, ptr }, ptr %15, i32 0, i32 0
  %110 = load i64, ptr %109, align 8
  %111 = getelementptr inbounds nuw { i64, ptr }, ptr %15, i32 0, i32 1
  %112 = load ptr, ptr %111, align 8
  %113 = getelementptr inbounds nuw { i64, ptr }, ptr %16, i32 0, i32 0
  %114 = load i64, ptr %113, align 8
  %115 = getelementptr inbounds nuw { i64, ptr }, ptr %16, i32 0, i32 1
  %116 = load ptr, ptr %115, align 8
  %117 = call i32 @jv_equal(i64 %110, ptr %112, i64 %114, ptr %116)
  %118 = icmp ne i32 %117, 0
  br i1 %118, label %119, label %129

119:                                              ; preds = %85
  %120 = load ptr, ptr %10, align 8, !tbaa !23
  %121 = load i32, ptr %14, align 4, !tbaa !10
  %122 = sext i32 %121 to i64
  %123 = getelementptr inbounds %struct.sort_entry, ptr %120, i64 %122
  %124 = getelementptr inbounds nuw %struct.sort_entry, ptr %123, i32 0, i32 1
  %125 = getelementptr inbounds nuw { i64, ptr }, ptr %124, i32 0, i32 0
  %126 = load i64, ptr %125, align 8
  %127 = getelementptr inbounds nuw { i64, ptr }, ptr %124, i32 0, i32 1
  %128 = load ptr, ptr %127, align 8
  call void @jv_free(i64 %126, ptr %128)
  br label %157

129:                                              ; preds = %85
  %130 = getelementptr inbounds nuw { i64, ptr }, ptr %11, i32 0, i32 0
  %131 = load i64, ptr %130, align 8
  %132 = getelementptr inbounds nuw { i64, ptr }, ptr %11, i32 0, i32 1
  %133 = load ptr, ptr %132, align 8
  call void @jv_free(i64 %131, ptr %133)
  %134 = load ptr, ptr %10, align 8, !tbaa !23
  %135 = load i32, ptr %14, align 4, !tbaa !10
  %136 = sext i32 %135 to i64
  %137 = getelementptr inbounds %struct.sort_entry, ptr %134, i64 %136
  %138 = getelementptr inbounds nuw %struct.sort_entry, ptr %137, i32 0, i32 1
  call void @llvm.memcpy.p0.p0.i64(ptr align 8 %11, ptr align 8 %138, i64 16, i1 false), !tbaa.struct !4
  call void @llvm.lifetime.start.p0(i64 16, ptr %17) #6
  %139 = getelementptr inbounds nuw { i64, ptr }, ptr %5, i32 0, i32 0
  %140 = load i64, ptr %139, align 8
  %141 = getelementptr inbounds nuw { i64, ptr }, ptr %5, i32 0, i32 1
  %142 = load ptr, ptr %141, align 8
  %143 = getelementptr inbounds nuw { i64, ptr }, ptr %12, i32 0, i32 0
  %144 = load i64, ptr %143, align 8
  %145 = getelementptr inbounds nuw { i64, ptr }, ptr %12, i32 0, i32 1
  %146 = load ptr, ptr %145, align 8
  %147 = call { i64, ptr } @jv_array_append(i64 %140, ptr %142, i64 %144, ptr %146)
  %148 = getelementptr inbounds nuw { i64, ptr }, ptr %17, i32 0, i32 0
  %149 = extractvalue { i64, ptr } %147, 0
  store i64 %149, ptr %148, align 8
  %150 = getelementptr inbounds nuw { i64, ptr }, ptr %17, i32 0, i32 1
  %151 = extractvalue { i64, ptr } %147, 1
  store ptr %151, ptr %150, align 8
  call void @llvm.memcpy.p0.p0.i64(ptr align 8 %5, ptr align 8 %17, i64 16, i1 false), !tbaa.struct !4
  call void @llvm.lifetime.end.p0(i64 16, ptr %17) #6
  call void @llvm.lifetime.start.p0(i64 16, ptr %18) #6
  %152 = call { i64, ptr } @jv_array()
  %153 = getelementptr inbounds nuw { i64, ptr }, ptr %18, i32 0, i32 0
  %154 = extractvalue { i64, ptr } %152, 0
  store i64 %154, ptr %153, align 8
  %155 = getelementptr inbounds nuw { i64, ptr }, ptr %18, i32 0, i32 1
  %156 = extractvalue { i64, ptr } %152, 1
  store ptr %156, ptr %155, align 8
  call void @llvm.memcpy.p0.p0.i64(ptr align 8 %12, ptr align 8 %18, i64 16, i1 false), !tbaa.struct !4
  call void @llvm.lifetime.end.p0(i64 16, ptr %18) #6
  br label %157

157:                                              ; preds = %129, %119
  call void @llvm.lifetime.start.p0(i64 16, ptr %19) #6
  %158 = load ptr, ptr %10, align 8, !tbaa !23
  %159 = load i32, ptr %14, align 4, !tbaa !10
  %160 = sext i32 %159 to i64
  %161 = getelementptr inbounds %struct.sort_entry, ptr %158, i64 %160
  %162 = getelementptr inbounds nuw %struct.sort_entry, ptr %161, i32 0, i32 0
  %163 = getelementptr inbounds nuw { i64, ptr }, ptr %12, i32 0, i32 0
  %164 = load i64, ptr %163, align 8
  %165 = getelementptr inbounds nuw { i64, ptr }, ptr %12, i32 0, i32 1
  %166 = load ptr, ptr %165, align 8
  %167 = getelementptr inbounds nuw { i64, ptr }, ptr %162, i32 0, i32 0
  %168 = load i64, ptr %167, align 8
  %169 = getelementptr inbounds nuw { i64, ptr }, ptr %162, i32 0, i32 1
  %170 = load ptr, ptr %169, align 8
  %171 = call { i64, ptr } @jv_array_append(i64 %164, ptr %166, i64 %168, ptr %170)
  %172 = getelementptr inbounds nuw { i64, ptr }, ptr %19, i32 0, i32 0
  %173 = extractvalue { i64, ptr } %171, 0
  store i64 %173, ptr %172, align 8
  %174 = getelementptr inbounds nuw { i64, ptr }, ptr %19, i32 0, i32 1
  %175 = extractvalue { i64, ptr } %171, 1
  store ptr %175, ptr %174, align 8
  call void @llvm.memcpy.p0.p0.i64(ptr align 8 %12, ptr align 8 %19, i64 16, i1 false), !tbaa.struct !4
  call void @llvm.lifetime.end.p0(i64 16, ptr %19) #6
  br label %176

176:                                              ; preds = %157
  %177 = load i32, ptr %14, align 4, !tbaa !10
  %178 = add nsw i32 %177, 1
  store i32 %178, ptr %14, align 4, !tbaa !10
  br label %80, !llvm.loop !42

179:                                              ; preds = %84
  %180 = getelementptr inbounds nuw { i64, ptr }, ptr %11, i32 0, i32 0
  %181 = load i64, ptr %180, align 8
  %182 = getelementptr inbounds nuw { i64, ptr }, ptr %11, i32 0, i32 1
  %183 = load ptr, ptr %182, align 8
  call void @jv_free(i64 %181, ptr %183)
  call void @llvm.lifetime.start.p0(i64 16, ptr %20) #6
  %184 = getelementptr inbounds nuw { i64, ptr }, ptr %5, i32 0, i32 0
  %185 = load i64, ptr %184, align 8
  %186 = getelementptr inbounds nuw { i64, ptr }, ptr %5, i32 0, i32 1
  %187 = load ptr, ptr %186, align 8
  %188 = getelementptr inbounds nuw { i64, ptr }, ptr %12, i32 0, i32 0
  %189 = load i64, ptr %188, align 8
  %190 = getelementptr inbounds nuw { i64, ptr }, ptr %12, i32 0, i32 1
  %191 = load ptr, ptr %190, align 8
  %192 = call { i64, ptr } @jv_array_append(i64 %185, ptr %187, i64 %189, ptr %191)
  %193 = getelementptr inbounds nuw { i64, ptr }, ptr %20, i32 0, i32 0
  %194 = extractvalue { i64, ptr } %192, 0
  store i64 %194, ptr %193, align 8
  %195 = getelementptr inbounds nuw { i64, ptr }, ptr %20, i32 0, i32 1
  %196 = extractvalue { i64, ptr } %192, 1
  store ptr %196, ptr %195, align 8
  call void @llvm.memcpy.p0.p0.i64(ptr align 8 %5, ptr align 8 %20, i64 16, i1 false), !tbaa.struct !4
  call void @llvm.lifetime.end.p0(i64 16, ptr %20) #6
  call void @llvm.lifetime.end.p0(i64 16, ptr %12) #6
  call void @llvm.lifetime.end.p0(i64 16, ptr %11) #6
  br label %197

197:                                              ; preds = %179, %4
  %198 = load ptr, ptr %10, align 8, !tbaa !23
  call void @jv_mem_free(ptr noundef %198)
  call void @llvm.lifetime.end.p0(i64 8, ptr %10) #6
  call void @llvm.lifetime.end.p0(i64 4, ptr %8) #6
  %199 = load { i64, ptr }, ptr %5, align 8
  ret { i64, ptr } %199
}