; Function Attrs: nounwind uwtable
define dso_local { i64, ptr } @jv_group(i64 %0, ptr %1, i64 %2, ptr %3) local_unnamed_addr #0 {
  %5 = tail call { i64, ptr } @jv_copy(i64 %0, ptr %1) #6
  %6 = extractvalue { i64, ptr } %5, 0
  %7 = extractvalue { i64, ptr } %5, 1
  %8 = tail call i32 @jv_array_length(i64 %6, ptr %7) #6
  %9 = tail call fastcc ptr @sort_items(i64 %0, ptr %1, i64 %2, ptr %3)
  %10 = tail call { i64, ptr } @jv_array() #6
  %11 = icmp sgt i32 %8, 0
  br i1 %11, label %12, label %51

12:                                               ; preds = %4
  %13 = extractvalue { i64, ptr } %10, 1
  %14 = extractvalue { i64, ptr } %10, 0
  %15 = getelementptr inbounds nuw i8, ptr %9, i64 16
  %.sroa.022.0.copyload = load i64, ptr %15, align 8
  %.sroa.7.0..sroa_idx = getelementptr inbounds nuw i8, ptr %9, i64 24
  %.sroa.7.0.copyload = load ptr, ptr %.sroa.7.0..sroa_idx, align 8, !tbaa !21
  %16 = tail call { i64, ptr } @jv_array() #6
  %17 = extractvalue { i64, ptr } %16, 0
  %18 = extractvalue { i64, ptr } %16, 1
  %19 = load i64, ptr %9, align 8
  %20 = getelementptr inbounds nuw i8, ptr %9, i64 8
  %21 = load ptr, ptr %20, align 8
  %22 = tail call { i64, ptr } @jv_array_append(i64 %17, ptr %18, i64 %19, ptr %21) #6
  %.sroa.8.051 = extractvalue { i64, ptr } %22, 1
  %.sroa.017.052 = extractvalue { i64, ptr } %22, 0
  %.not65 = icmp eq i32 %8, 1
  br i1 %.not65, label %._crit_edge, label %.lr.ph.preheader

.lr.ph.preheader:                                 ; preds = %12
  %wide.trip.count = zext nneg i32 %8 to i64
  br label %.lr.ph

._crit_edge:                                      ; preds = %46, %12
  %.sroa.022.0.lcssa = phi i64 [ %.sroa.022.0.copyload, %12 ], [ %.sroa.022.1, %46 ]
  %.sroa.7.0.lcssa = phi ptr [ %.sroa.7.0.copyload, %12 ], [ %.sroa.7.1, %46 ]
  %.sroa.045.1.lcssa = phi i64 [ %14, %12 ], [ %.sroa.045.2, %46 ]
  %.sroa.6.1.lcssa = phi ptr [ %13, %12 ], [ %.sroa.6.2, %46 ]
  %.sroa.8.0.lcssa = phi ptr [ %.sroa.8.051, %12 ], [ %.sroa.8.0, %46 ]
  %.sroa.017.0.lcssa = phi i64 [ %.sroa.017.052, %12 ], [ %.sroa.017.0, %46 ]
  tail call void @jv_free(i64 %.sroa.022.0.lcssa, ptr %.sroa.7.0.lcssa) #6
  %23 = tail call { i64, ptr } @jv_array_append(i64 %.sroa.045.1.lcssa, ptr %.sroa.6.1.lcssa, i64 %.sroa.017.0.lcssa, ptr %.sroa.8.0.lcssa) #6
  br label %51

.lr.ph:                                           ; preds = %.lr.ph.preheader, %46
  %indvars.iv = phi i64 [ 1, %.lr.ph.preheader ], [ %indvars.iv.next, %46 ]
  %.sroa.017.059 = phi i64 [ %.sroa.017.052, %.lr.ph.preheader ], [ %.sroa.017.0, %46 ]
  %.sroa.8.058 = phi ptr [ %.sroa.8.051, %.lr.ph.preheader ], [ %.sroa.8.0, %46 ]
  %.sroa.6.157 = phi ptr [ %13, %.lr.ph.preheader ], [ %.sroa.6.2, %46 ]
  %.sroa.045.156 = phi i64 [ %14, %.lr.ph.preheader ], [ %.sroa.045.2, %46 ]
  %.sroa.7.055 = phi ptr [ %.sroa.7.0.copyload, %.lr.ph.preheader ], [ %.sroa.7.1, %46 ]
  %.sroa.022.054 = phi i64 [ %.sroa.022.0.copyload, %.lr.ph.preheader ], [ %.sroa.022.1, %46 ]
  %24 = tail call { i64, ptr } @jv_copy(i64 %.sroa.022.054, ptr %.sroa.7.055) #6
  %25 = extractvalue { i64, ptr } %24, 0
  %26 = extractvalue { i64, ptr } %24, 1
  %27 = getelementptr inbounds nuw %struct.sort_entry, ptr %9, i64 %indvars.iv
  %28 = getelementptr inbounds nuw i8, ptr %27, i64 16
  %29 = load i64, ptr %28, align 8
  %30 = getelementptr inbounds nuw i8, ptr %27, i64 24
  %31 = load ptr, ptr %30, align 8
  %32 = tail call { i64, ptr } @jv_copy(i64 %29, ptr %31) #6
  %33 = extractvalue { i64, ptr } %32, 0
  %34 = extractvalue { i64, ptr } %32, 1
  %35 = tail call i32 @jv_equal(i64 %25, ptr %26, i64 %33, ptr %34) #6
  %.not = icmp eq i32 %35, 0
  br i1 %.not, label %39, label %36

36:                                               ; preds = %.lr.ph
  %37 = load i64, ptr %28, align 8
  %38 = load ptr, ptr %30, align 8
  tail call void @jv_free(i64 %37, ptr %38) #6
  br label %46

39:                                               ; preds = %.lr.ph
  tail call void @jv_free(i64 %.sroa.022.054, ptr %.sroa.7.055) #6
  %.sroa.022.0.copyload25 = load i64, ptr %28, align 8
  %.sroa.7.0.copyload27 = load ptr, ptr %30, align 8, !tbaa !21
  %40 = tail call { i64, ptr } @jv_array_append(i64 %.sroa.045.156, ptr %.sroa.6.157, i64 %.sroa.017.059, ptr %.sroa.8.058) #6
  %41 = extractvalue { i64, ptr } %40, 0
  %42 = extractvalue { i64, ptr } %40, 1
  %43 = tail call { i64, ptr } @jv_array() #6
  %44 = extractvalue { i64, ptr } %43, 0
  %45 = extractvalue { i64, ptr } %43, 1
  br label %46

46:                                               ; preds = %39, %36
  %.sroa.017.1 = phi i64 [ %.sroa.017.059, %36 ], [ %44, %39 ]
  %.sroa.8.1 = phi ptr [ %.sroa.8.058, %36 ], [ %45, %39 ]
  %.sroa.022.1 = phi i64 [ %.sroa.022.054, %36 ], [ %.sroa.022.0.copyload25, %39 ]
  %.sroa.7.1 = phi ptr [ %.sroa.7.055, %36 ], [ %.sroa.7.0.copyload27, %39 ]
  %.sroa.045.2 = phi i64 [ %.sroa.045.156, %36 ], [ %41, %39 ]
  %.sroa.6.2 = phi ptr [ %.sroa.6.157, %36 ], [ %42, %39 ]
  %47 = load i64, ptr %27, align 8
  %48 = getelementptr inbounds nuw i8, ptr %27, i64 8
  %49 = load ptr, ptr %48, align 8
  %50 = tail call { i64, ptr } @jv_array_append(i64 %.sroa.017.1, ptr %.sroa.8.1, i64 %47, ptr %49) #6
  %indvars.iv.next = add nuw nsw i64 %indvars.iv, 1
  %.sroa.8.0 = extractvalue { i64, ptr } %50, 1
  %.sroa.017.0 = extractvalue { i64, ptr } %50, 0
  %exitcond.not = icmp eq i64 %indvars.iv.next, %wide.trip.count
  br i1 %exitcond.not, label %._crit_edge, label %.lr.ph, !llvm.loop !31

51:                                               ; preds = %._crit_edge, %4
  %.fca.1.insert.merged = phi { i64, ptr } [ %23, %._crit_edge ], [ %10, %4 ]
  tail call void @jv_mem_free(ptr noundef %9) #6
  ret { i64, ptr } %.fca.1.insert.merged
}